; Function Attrs: inlinehint nounwind uwtable
define internal void @_ZThn248_N11opencv_test12_GLOBAL__N_139JointBilateralFilterTest_perf_perf_TestD1Ev(ptr noundef initializes((-248, -240)) %0) unnamed_addr #17 align 2 personality ptr @__gxx_personality_v0 {
  %2 = getelementptr inbounds i8, ptr %0, i64 -248
  store ptr getelementptr inbounds nuw inrange(-16, 56) (i8, ptr @_ZTVN4perf8TestBaseE, i64 16), ptr %2, align 8, !tbaa !12
  %3 = getelementptr inbounds i8, ptr %0, i64 -176
  %4 = load ptr, ptr %3, align 8, !tbaa !83
  %.not.i.i.i.i.i = icmp eq ptr %4, null
  br i1 %.not.i.i.i.i.i, label %_ZNSt6vectorIlSaIlEED2Ev.exit.i.i, label %5

5:                                                ; preds = %1
  tail call void @_ZdlPv(ptr noundef nonnull %4) #31
  br label %_ZNSt6vectorIlSaIlEED2Ev.exit.i.i

_ZNSt6vectorIlSaIlEED2Ev.exit.i.i:                ; preds = %5, %1
  %6 = getelementptr inbounds i8, ptr %0, i64 -208
  %7 = load ptr, ptr %6, align 8, !tbaa !84
  %.not.i.i.i1.i.i = icmp eq ptr %7, null
  br i1 %.not.i.i.i1.i.i, label %_ZNSt6vectorISt4pairIiN2cv5Size_IiEEESaIS4_EED2Ev.exit.i.i, label %8

8:                                                ; preds = %_ZNSt6vectorIlSaIlEED2Ev.exit.i.i
  tail call void @_ZdlPv(ptr noundef nonnull %7) #31
  br label %_ZNSt6vectorISt4pairIiN2cv5Size_IiEEESaIS4_EED2Ev.exit.i.i

_ZNSt6vectorISt4pairIiN2cv5Size_IiEEESaIS4_EED2Ev.exit.i.i: ; preds = %8, %_ZNSt6vectorIlSaIlEED2Ev.exit.i.i
  %9 = getelementptr inbounds i8, ptr %0, i64 -232
  %10 = load ptr, ptr %9, align 8, !tbaa !84
  %.not.i.i.i2.i.i = icmp eq ptr %10, null
  br i1 %.not.i.i.i2.i.i, label %_ZN4perf17TestBaseWithParamISt5tupleIJdN2cv5Size_IiEENS_7MatTypeEiiEEED2Ev.exit, label %11

11:                                               ; preds = %_ZNSt6vectorISt4pairIiN2cv5Size_IiEEESaIS4_EED2Ev.exit.i.i
  tail call void @_ZdlPv(ptr noundef nonnull %10) #31
  br label %_ZN4perf17TestBaseWithParamISt5tupleIJdN2cv5Size_IiEENS_7MatTypeEiiEEED2Ev.exit

_ZN4perf17TestBaseWithParamISt5tupleIJdN2cv5Size_IiEENS_7MatTypeEiiEEED2Ev.exit: ; preds = %_ZNSt6vectorISt4pairIiN2cv5Size_IiEEESaIS4_EED2Ev.exit.i.i, %11
  tail call void @_ZN7testing4TestD2Ev(ptr noundef nonnull align 8 dereferenceable(257) %2) #30
  ret void
}